; Function Attrs: mustprogress nofree norecurse nosync nounwind memory(argmem: readwrite) uwtable
define void @_ZN7RSCoder6pnInitEv(ptr nocapture noundef nonnull align 4 dereferenceable(11273) %0) local_unnamed_addr #0 align 2 {
  %2 = alloca [256 x i32], align 16
  %3 = alloca [256 x i32], align 16
  %4 = getelementptr inbounds i8, ptr %0, i64 9220
  %5 = load i32, ptr %4, align 4
  %6 = icmp sgt i32 %5, 0
  br i1 %6, label %.preheader.lr.ph, label %._crit_edge30

.preheader.lr.ph:                                 ; preds = %1
  %7 = zext nneg i32 %5 to i64
  %8 = shl nuw nsw i64 %7, 2
  call void @llvm.memset.p0.i64(ptr nonnull align 16 %2, i8 0, i64 %8, i1 false)
  store i32 1, ptr %2, align 16
  %9 = getelementptr inbounds i8, ptr %3, i64 4
  %10 = getelementptr inbounds i8, ptr %0, i64 3072
  %11 = getelementptr inbounds i8, ptr %0, i64 2048
  br label %.preheader

.preheader:                                       ; preds = %.preheader.lr.ph, %._crit_edge26
  %12 = phi i32 [ %5, %.preheader.lr.ph ], [ %57, %._crit_edge26 ]
  %indvars.iv = phi i64 [ 1, %.preheader.lr.ph ], [ %indvars.iv.next, %._crit_edge26 ]
  %13 = icmp sgt i32 %12, 0
  br i1 %13, label %.lr.ph.i.preheader, label %._crit_edge23

._crit_edge23:                                    ; preds = %.preheader
  %14 = getelementptr inbounds [512 x i32], ptr %0, i64 0, i64 %indvars.iv
  %15 = load i32, ptr %14, align 4
  store i32 %15, ptr %3, align 16
  store i32 1, ptr %9, align 4
  br label %._crit_edge26

.lr.ph.i.preheader:                               ; preds = %.preheader
  %16 = zext nneg i32 %12 to i64
  %17 = shl nuw nsw i64 %16, 2
  call void @llvm.memset.p0.i64(ptr nonnull align 16 %3, i8 0, i64 %17, i1 false)
  %18 = getelementptr inbounds [512 x i32], ptr %0, i64 0, i64 %indvars.iv
  %19 = load i32, ptr %18, align 4
  store i32 %19, ptr %3, align 16
  store i32 1, ptr %9, align 4
  br label %.lr.ph.i

.preheader20.i:                                   ; preds = %.lr.ph.i
  %20 = icmp sgt i32 %22, 0
  br i1 %20, label %.lr.ph26.i, label %._crit_edge26

.lr.ph.i:                                         ; preds = %.lr.ph.i.preheader, %.lr.ph.i
  %indvars.iv.i = phi i64 [ %indvars.iv.next.i, %.lr.ph.i ], [ 0, %.lr.ph.i.preheader ]
  %21 = getelementptr inbounds i32, ptr %10, i64 %indvars.iv.i
  store i32 0, ptr %21, align 4
  %indvars.iv.next.i = add nuw nsw i64 %indvars.iv.i, 1
  %22 = load i32, ptr %4, align 4
  %23 = sext i32 %22 to i64
  %24 = icmp slt i64 %indvars.iv.next.i, %23
  br i1 %24, label %.lr.ph.i, label %.preheader20.i, !llvm.loop !7

.lr.ph26.i:                                       ; preds = %.preheader20.i, %.loopexit.i
  %25 = phi i32 [ %52, %.loopexit.i ], [ %22, %.preheader20.i ]
  %indvars.iv31.i = phi i64 [ %indvars.iv.next32.i, %.loopexit.i ], [ 0, %.preheader20.i ]
  %26 = getelementptr inbounds i32, ptr %3, i64 %indvars.iv31.i
  %27 = load i32, ptr %26, align 4
  %.not.i = icmp ne i32 %27, 0
  %28 = sext i32 %25 to i64
  %29 = icmp slt i64 %indvars.iv31.i, %28
  %or.cond.i = and i1 %29, %.not.i
  br i1 %or.cond.i, label %.lr.ph23.preheader.i, label %.loopexit.i

.lr.ph23.preheader.i:                             ; preds = %.lr.ph26.i
  %invariant.gep.i = getelementptr i32, ptr %10, i64 %indvars.iv31.i
  %30 = trunc nuw nsw i64 %indvars.iv31.i to i32
  %31 = sext i32 %27 to i64
  %32 = getelementptr inbounds [256 x i32], ptr %11, i64 0, i64 %31
  br label %.lr.ph23.i

.lr.ph23.i:                                       ; preds = %_ZN7RSCoder6gfMultEii.exit.i, %.lr.ph23.preheader.i
  %indvars.iv28.i = phi i64 [ 0, %.lr.ph23.preheader.i ], [ %indvars.iv.next29.i, %_ZN7RSCoder6gfMultEii.exit.i ]
  %33 = getelementptr inbounds i32, ptr %2, i64 %indvars.iv28.i
  %34 = load i32, ptr %33, align 4
  %35 = icmp eq i32 %34, 0
  br i1 %35, label %_ZN7RSCoder6gfMultEii.exit.i, label %36

36:                                               ; preds = %.lr.ph23.i
  %37 = load i32, ptr %32, align 4
  %38 = sext i32 %34 to i64
  %39 = getelementptr inbounds [256 x i32], ptr %11, i64 0, i64 %38
  %40 = load i32, ptr %39, align 4
  %41 = add nsw i32 %40, %37
  %42 = sext i32 %41 to i64
  %43 = getelementptr inbounds [512 x i32], ptr %0, i64 0, i64 %42
  %44 = load i32, ptr %43, align 4
  br label %_ZN7RSCoder6gfMultEii.exit.i

_ZN7RSCoder6gfMultEii.exit.i:                     ; preds = %36, %.lr.ph23.i
  %45 = phi i32 [ %44, %36 ], [ 0, %.lr.ph23.i ]
  %gep.i = getelementptr i32, ptr %invariant.gep.i, i64 %indvars.iv28.i
  %46 = load i32, ptr %gep.i, align 4
  %47 = xor i32 %46, %45
  store i32 %47, ptr %gep.i, align 4
  %indvars.iv.next29.i = add nuw nsw i64 %indvars.iv28.i, 1
  %48 = load i32, ptr %4, align 4
  %49 = sub nsw i32 %48, %30
  %50 = sext i32 %49 to i64
  %51 = icmp slt i64 %indvars.iv.next29.i, %50
  br i1 %51, label %.lr.ph23.i, label %.loopexit.i.loopexit, !llvm.loop !8

.loopexit.i.loopexit:                             ; preds = %_ZN7RSCoder6gfMultEii.exit.i
  %.pre = sext i32 %48 to i64
  br label %.loopexit.i

.loopexit.i:                                      ; preds = %.loopexit.i.loopexit, %.lr.ph26.i
  %.pre-phi = phi i64 [ %.pre, %.loopexit.i.loopexit ], [ %28, %.lr.ph26.i ]
  %52 = phi i32 [ %48, %.loopexit.i.loopexit ], [ %25, %.lr.ph26.i ]
  %indvars.iv.next32.i = add nuw nsw i64 %indvars.iv31.i, 1
  %53 = icmp slt i64 %indvars.iv.next32.i, %.pre-phi
  br i1 %53, label %.lr.ph26.i, label %_ZN7RSCoder6pnMultEPiS0_S0_.exit, !llvm.loop !9

_ZN7RSCoder6pnMultEPiS0_S0_.exit:                 ; preds = %.loopexit.i
  %54 = icmp sgt i32 %52, 0
  br i1 %54, label %.lr.ph25.preheader, label %._crit_edge26

.lr.ph25.preheader:                               ; preds = %_ZN7RSCoder6pnMultEPiS0_S0_.exit
  %55 = zext nneg i32 %52 to i64
  %56 = shl nuw nsw i64 %55, 2
  call void @llvm.memcpy.p0.p0.i64(ptr nonnull align 16 %2, ptr nonnull align 4 %10, i64 %56, i1 false)
  br label %._crit_edge26

._crit_edge26:                                    ; preds = %.preheader20.i, %._crit_edge23, %.lr.ph25.preheader, %_ZN7RSCoder6pnMultEPiS0_S0_.exit
  %57 = phi i32 [ %52, %.lr.ph25.preheader ], [ %52, %_ZN7RSCoder6pnMultEPiS0_S0_.exit ], [ %22, %.preheader20.i ], [ %12, %._crit_edge23 ]
  %indvars.iv.next = add nuw nsw i64 %indvars.iv, 1
  %58 = sext i32 %57 to i64
  %.not.not = icmp slt i64 %indvars.iv, %58
  br i1 %.not.not, label %.preheader, label %._crit_edge30, !llvm.loop !10

._crit_edge30:                                    ; preds = %._crit_edge26, %1
  ret void
}